target datalayout = "e-m:e-p270:32:32-p271:32:32-p272:64:64-i64:64-i128:128-f80:128-n8:16:32:64-S128"
target triple = "x86_64-pc-linux-gnu"

%struct.rb_data_type_struct = type { ptr, %struct.anon.12, ptr, ptr, i64 }
%struct.anon.12 = type { ptr, ptr, ptr, ptr, [1 x ptr] }
%struct.rofr_data = type { i64, ptr, i64, i64 }

@rb_cInternalObjectWrapper = internal global i64 0, align 8
@iow_data_type = internal constant %struct.rb_data_type_struct { ptr @.str.95, %struct.anon.12 { ptr @iow_mark, ptr null, ptr @iow_size, ptr null, [1 x ptr] zeroinitializer }, ptr null, ptr null, i64 1 }, align 8
@.str.96 = private unnamed_addr constant [61 x i8] c"reachable_object_from_root_i: category should insert at once\00", align 1

; Function Attrs: nounwind sspstrong uwtable
define internal i64 @iow_newobj(i64 noundef %0) #0 {
  %2 = alloca i64, align 8
  store i64 %0, ptr %2, align 8, !tbaa !6
  %3 = load i64, ptr @rb_cInternalObjectWrapper, align 8, !tbaa !6
  %4 = load i64, ptr %2, align 8, !tbaa !6
  %5 = inttoptr i64 %4 to ptr
  %6 = call i64 @rb_data_typed_object_wrap(i64 noundef %3, ptr noundef %5, ptr noundef @iow_data_type)
  ret i64 %6
}

; Function Attrs: inlinehint nounwind sspstrong willreturn memory(none) uwtable
define internal zeroext i1 @RB_NIL_P(i64 noundef %0) #4 {
  %2 = alloca i64, align 8
  store i64 %0, ptr %2, align 8, !tbaa !6
  %3 = load i64, ptr %2, align 8, !tbaa !6
  %4 = icmp eq i64 %3, 4
  ret i1 %4
}

; Function Attrs: nounwind sspstrong uwtable
define internal void @reachable_object_from_root_i(ptr noundef %0, i64 noundef %1, ptr noundef %2) #0 {
  %4 = alloca ptr, align 8
  %5 = alloca i64, align 8
  %6 = alloca ptr, align 8
  %7 = alloca ptr, align 8
  %8 = alloca i64, align 8
  %9 = alloca i64, align 8
  store ptr %0, ptr %4, align 8, !tbaa !39
  store i64 %1, ptr %5, align 8, !tbaa !6
  store ptr %2, ptr %6, align 8, !tbaa !46
  call void @llvm.lifetime.start.p0(i64 8, ptr %7) #15
  %10 = load ptr, ptr %6, align 8, !tbaa !46
  store ptr %10, ptr %7, align 8, !tbaa !69
  call void @llvm.lifetime.start.p0(i64 8, ptr %8) #15
  call void @llvm.lifetime.start.p0(i64 8, ptr %9) #15
  %11 = load ptr, ptr %4, align 8, !tbaa !39
  %12 = load ptr, ptr %7, align 8, !tbaa !69
  %13 = getelementptr inbounds nuw %struct.rofr_data, ptr %12, i32 0, i32 1
  %14 = load ptr, ptr %13, align 8, !tbaa !32
  %15 = icmp eq ptr %11, %14
  br i1 %15, label %16, label %23

16:                                               ; preds = %3
  %17 = load ptr, ptr %7, align 8, !tbaa !69
  %18 = getelementptr inbounds nuw %struct.rofr_data, ptr %17, i32 0, i32 2
  %19 = load i64, ptr %18, align 8, !tbaa !71
  store i64 %19, ptr %8, align 8, !tbaa !6
  %20 = load ptr, ptr %7, align 8, !tbaa !69
  %21 = getelementptr inbounds nuw %struct.rofr_data, ptr %20, i32 0, i32 3
  %22 = load i64, ptr %21, align 8, !tbaa !72
  store i64 %22, ptr %9, align 8, !tbaa !6
  br label %48

23:                                               ; preds = %3
  %24 = load ptr, ptr %4, align 8, !tbaa !39
  %25 = load ptr, ptr %7, align 8, !tbaa !69
  %26 = getelementptr inbounds nuw %struct.rofr_data, ptr %25, i32 0, i32 1
  store ptr %24, ptr %26, align 8, !tbaa !32
  %27 = load ptr, ptr %4, align 8, !tbaa !39
  %28 = call i64 @rb_str_new_cstr(ptr noundef %27)
  %29 = load ptr, ptr %7, align 8, !tbaa !69
  %30 = getelementptr inbounds nuw %struct.rofr_data, ptr %29, i32 0, i32 2
  store i64 %28, ptr %30, align 8, !tbaa !71
  store i64 %28, ptr %8, align 8, !tbaa !6
  %31 = call i64 @rb_ident_hash_new()
  %32 = load ptr, ptr %7, align 8, !tbaa !69
  %33 = getelementptr inbounds nuw %struct.rofr_data, ptr %32, i32 0, i32 3
  store i64 %31, ptr %33, align 8, !tbaa !72
  store i64 %31, ptr %9, align 8, !tbaa !6
  %34 = load ptr, ptr %7, align 8, !tbaa !69
  %35 = getelementptr inbounds nuw %struct.rofr_data, ptr %34, i32 0, i32 0
  %36 = load i64, ptr %35, align 8, !tbaa !29
  %37 = load i64, ptr %8, align 8, !tbaa !6
  %38 = call i64 @rb_hash_lookup(i64 noundef %36, i64 noundef %37)
  %39 = call zeroext i1 @RB_NIL_P(i64 noundef %38) #18
  br i1 %39, label %41, label %40

40:                                               ; preds = %23
  call void (ptr, ...) @rb_bug(ptr noundef @.str.96) #20
  unreachable

41:                                               ; preds = %23
  %42 = load ptr, ptr %7, align 8, !tbaa !69
  %43 = getelementptr inbounds nuw %struct.rofr_data, ptr %42, i32 0, i32 0
  %44 = load i64, ptr %43, align 8, !tbaa !29
  %45 = load i64, ptr %8, align 8, !tbaa !6
  %46 = load i64, ptr %9, align 8, !tbaa !6
  %47 = call i64 @rb_hash_aset(i64 noundef %44, i64 noundef %45, i64 noundef %46)
  br label %48

48:                                               ; preds = %41, %16
  %49 = load i64, ptr %5, align 8, !tbaa !6
  %50 = call i32 @rb_objspace_garbage_object_p(i64 noundef %49)
  %51 = icmp ne i32 %50, 0
  br i1 %51, label %76, label %52

52:                                               ; preds = %48
  %53 = load i64, ptr %5, align 8, !tbaa !6
  %54 = load ptr, ptr %7, align 8, !tbaa !69
  %55 = getelementptr inbounds nuw %struct.rofr_data, ptr %54, i32 0, i32 0
  %56 = load i64, ptr %55, align 8, !tbaa !29
  %57 = icmp ne i64 %53, %56
  br i1 %57, label %58, label %76

58:                                               ; preds = %52
  %59 = load i64, ptr %5, align 8, !tbaa !6
  %60 = load ptr, ptr %7, align 8, !tbaa !69
  %61 = getelementptr inbounds nuw %struct.rofr_data, ptr %60, i32 0, i32 3
  %62 = load i64, ptr %61, align 8, !tbaa !72
  %63 = icmp ne i64 %59, %62
  br i1 %63, label %64, label %76

64:                                               ; preds = %58
  %65 = load i64, ptr %5, align 8, !tbaa !6
  %66 = call i32 @rb_objspace_internal_object_p(i64 noundef %65)
  %67 = icmp ne i32 %66, 0
  br i1 %67, label %68, label %71

68:                                               ; preds = %64
  %69 = load i64, ptr %5, align 8, !tbaa !6
  %70 = call i64 @iow_newobj(i64 noundef %69)
  store i64 %70, ptr %5, align 8, !tbaa !6
  br label %71

71:                                               ; preds = %68, %64
  %72 = load i64, ptr %9, align 8, !tbaa !6
  %73 = load i64, ptr %5, align 8, !tbaa !6
  %74 = load i64, ptr %5, align 8, !tbaa !6
  %75 = call i64 @rb_hash_aset(i64 noundef %72, i64 noundef %73, i64 noundef %74)
  br label %76

76:                                               ; preds = %71, %58, %52, %48
  call void @llvm.lifetime.end.p0(i64 8, ptr %9) #15
  call void @llvm.lifetime.end.p0(i64 8, ptr %8) #15
  call void @llvm.lifetime.end.p0(i64 8, ptr %7) #15
  ret void
}