; Function Attrs: nounwind sspstrong uwtable
define internal void @reachable_object_from_root_i(ptr noundef %0, i64 noundef %1, ptr noundef captures(none) %2) #0 {
  %4 = getelementptr inbounds nuw i8, ptr %2, i64 8
  %5 = load ptr, ptr %4, align 8, !tbaa !31
  %6 = icmp eq ptr %0, %5
  br i1 %6, label %7, label %10

7:                                                ; preds = %3
  %8 = getelementptr inbounds nuw i8, ptr %2, i64 24
  %9 = load i64, ptr %8, align 8, !tbaa !47
  br label %22

10:                                               ; preds = %3
  store ptr %0, ptr %4, align 8, !tbaa !31
  %11 = tail call i64 @rb_str_new_cstr(ptr noundef %0) #7
  %12 = getelementptr inbounds nuw i8, ptr %2, i64 16
  store i64 %11, ptr %12, align 8, !tbaa !48
  %13 = tail call i64 @rb_ident_hash_new() #7
  %14 = getelementptr inbounds nuw i8, ptr %2, i64 24
  store i64 %13, ptr %14, align 8, !tbaa !47
  %15 = load i64, ptr %2, align 8, !tbaa !28
  %16 = tail call i64 @rb_hash_lookup(i64 noundef %15, i64 noundef %11) #7
  %17 = icmp eq i64 %16, 4
  br i1 %17, label %19, label %18

18:                                               ; preds = %10
  tail call void (ptr, ...) @rb_bug(ptr noundef nonnull @.str.96) #9
  unreachable

19:                                               ; preds = %10
  %20 = load i64, ptr %2, align 8, !tbaa !28
  %21 = tail call i64 @rb_hash_aset(i64 noundef %20, i64 noundef %11, i64 noundef %13) #7
  br label %22

22:                                               ; preds = %19, %7
  %.0 = phi i64 [ %9, %7 ], [ %13, %19 ]
  %23 = tail call i32 @rb_objspace_garbage_object_p(i64 noundef %1) #7
  %.not = icmp eq i32 %23, 0
  br i1 %.not, label %24, label %37

24:                                               ; preds = %22
  %25 = load i64, ptr %2, align 8, !tbaa !28
  %.not27 = icmp eq i64 %1, %25
  br i1 %.not27, label %37, label %26

26:                                               ; preds = %24
  %27 = getelementptr inbounds nuw i8, ptr %2, i64 24
  %28 = load i64, ptr %27, align 8, !tbaa !47
  %.not28 = icmp eq i64 %1, %28
  br i1 %.not28, label %37, label %29

29:                                               ; preds = %26
  %30 = tail call i32 @rb_objspace_internal_object_p(i64 noundef %1) #7
  %.not29 = icmp eq i32 %30, 0
  br i1 %.not29, label %35, label %31

31:                                               ; preds = %29
  %32 = load i64, ptr @rb_cInternalObjectWrapper, align 8, !tbaa !6
  %33 = inttoptr i64 %1 to ptr
  %34 = tail call i64 @rb_data_typed_object_wrap(i64 noundef %32, ptr noundef %33, ptr noundef nonnull @iow_data_type) #7
  br label %35

35:                                               ; preds = %31, %29
  %.024 = phi i64 [ %34, %31 ], [ %1, %29 ]
  %36 = tail call i64 @rb_hash_aset(i64 noundef %.0, i64 noundef %.024, i64 noundef %.024) #7
  br label %37

37:                                               ; preds = %35, %26, %24, %22
  ret void
}